
Allocating common symbols
Common symbol       size              file

tim1_config         0x1c              Stm32f10xx_Timers.o

Memory Configuration

Name             Origin             Length             Attributes
FLASH            0x0000000008000000 0x000000000000c800 xr
SRAM             0x0000000020000000 0x0000000000002800 xrw
*default*        0x0000000000000000 0xffffffffffffffff

Linker script and memory map


.text           0x0000000008000000      0xd1b
 *(.vectors*)
 .vectors       0x0000000008000000       0xec startup.o
                0x0000000008000000                vectors
 *(.text*)
 .text          0x00000000080000ec      0x140 main.o
                0x00000000080000ec                PendSv_Handler
                0x00000000080000f8                SVCall_Handler
                0x000000000800010c                SVC_services
                0x000000000800019c                Set_SVC_Services
                0x00000000080001ee                main
 .text          0x000000000800022c       0x8c startup.o
                0x000000000800022c                FLASH_Handler
                0x000000000800022c                SysTick_Handler
                0x000000000800022c                USART3_Handler
                0x000000000800022c                DMA1_Channel7_Handler
                0x000000000800022c                NMI_Handler
                0x000000000800022c                DMA1_Channel6_Handler
                0x000000000800022c                CAN1_RX1_Handler
                0x000000000800022c                EXTI15_10_Handler
                0x000000000800022c                I2C1_EV_Handler
                0x000000000800022c                Bus_Fault_Handler
                0x000000000800022c                ADC1_2_Handler
                0x000000000800022c                WWDG_Handler
                0x000000000800022c                EXTI4_Handler
                0x000000000800022c                DMA1_Channel1_Handler
                0x000000000800022c                I2C1_ER_Handler
                0x000000000800022c                RTC_Handler
                0x000000000800022c                TIM1_CC_Handler
                0x000000000800022c                I2C2_ER_Handler
                0x000000000800022c                CAN1_SCE_Handler
                0x000000000800022c                TIM1_BRK_Handler
                0x000000000800022c                MM_Fault_Handler
                0x000000000800022c                EXTI1_Handler
                0x000000000800022c                TEMPER_Handler
                0x000000000800022c                EXTI3_Handler
                0x000000000800022c                EXTI2_Handler
                0x000000000800022c                EXTI9_5_Handler
                0x000000000800022c                TIM2_Handler
                0x000000000800022c                USART1_Handler
                0x000000000800022c                DMA1_Channel4_Handler
                0x000000000800022c                TIM3_Handler
                0x000000000800022c                Default_Handler
                0x000000000800022c                USBWakeUp_Handler
                0x000000000800022c                DMA1_Channel3_Handler
                0x000000000800022c                RTC_Alarm_Handler
                0x000000000800022c                TIM4_Handler
                0x000000000800022c                SPI2_Handler
                0x000000000800022c                DMA1_Channel2_Handler
                0x000000000800022c                EXTI0_Handler
                0x000000000800022c                Usage_Fault_Handler
                0x000000000800022c                TIM1_UP_Handler
                0x000000000800022c                DMA1_Channel5_Handler
                0x000000000800022c                USART2_Handler
                0x000000000800022c                SPI1_Handler
                0x000000000800022c                DebugMonitor_Handler
                0x000000000800022c                I2C2_EV_Handler
                0x000000000800022c                RCC_Handler
                0x000000000800022c                PVD_Handler
                0x000000000800022c                Hard_Fault_Handler
                0x000000000800022c                USB_LP_CAN1_RX0_Handler
                0x000000000800022c                USB_HP_CAN1_TX_Handler
                0x000000000800022c                TIM1_TRG_COM_Handler
                0x0000000008000238                Rest_Handler
 .text          0x00000000080002b8      0x288 Stm32f10x_DMA.o
                0x00000000080002b8                DMA_Init
                0x0000000008000362                DMA_ReInit
                0x00000000080003c2                DMA_Set_Number_of_Data
                0x000000000800043c                DMA_Set_Peripheral_Add
                0x000000000800046c                DMA_Set_Memory_Add
                0x000000000800049c                DMA_Enable_Channel
                0x00000000080004e4                DMA_Disable_Channel
                0x000000000800052c                DMA_Soft_Trigger
 .text          0x0000000008000540       0xfc Stm32f10xx_Common.o
                0x0000000008000540                add_unsigned_int_to_str
                0x00000000080005f4                clear_buffer
 .text          0x000000000800063c      0x488 Stm32f10xx_GPIO.o
                0x000000000800063c                Init_GPIO
                0x0000000008000890                Set_pin
                0x00000000080008ac                Reset_pin
                0x00000000080008cc                Change_State_Pin
                0x00000000080008fe                Toggle_pin
                0x0000000008000920                Read_pin
                0x0000000008000948                Set_GPIO_Value
                0x0000000008000962                Reset_GPIO
                0x0000000008000980                Read_GPIO
                0x0000000008000998                Lock_GPIO
                0x00000000080009f2                Deinit_GPIO
 .text          0x0000000008000ac4      0x1a4 Stm32f10xx_RCC.o
                0x0000000008000ac4                Get_Systick_Freq
                0x0000000008000bb0                Get_HCLK_Freq
                0x0000000008000bdc                Get_APB1_Freq
                0x0000000008000c04                Get_APB2_Freq
                0x0000000008000c2c                Set_HSE_CLK_Freq
 .text          0x0000000008000c68       0x70 Stm32f10xx_Timers.o
                0x0000000008000c68                Init_Timer
 *(.rodata)
 .rodata        0x0000000008000cd8       0x43 Stm32f10xx_RCC.o
                0x0000000008000d1b                _E_text = .

.glue_7         0x0000000008000d1c        0x0
 .glue_7        0x0000000008000d1c        0x0 linker stubs

.glue_7t        0x0000000008000d1c        0x0
 .glue_7t       0x0000000008000d1c        0x0 linker stubs

.vfp11_veneer   0x0000000008000d1c        0x0
 .vfp11_veneer  0x0000000008000d1c        0x0 linker stubs

.v4_bx          0x0000000008000d1c        0x0
 .v4_bx         0x0000000008000d1c        0x0 linker stubs

.iplt           0x0000000008000d1c        0x0
 .iplt          0x0000000008000d1c        0x0 main.o

.rel.dyn        0x0000000008000d1c        0x0
 .rel.iplt      0x0000000008000d1c        0x0 main.o

.data           0x0000000020000000        0x0 load address 0x0000000008000d1b
                0x0000000020000000                _S_DATA = .
 *(.data)
 .data          0x0000000020000000        0x0 main.o
 .data          0x0000000020000000        0x0 startup.o
 .data          0x0000000020000000        0x0 Stm32f10x_DMA.o
 .data          0x0000000020000000        0x0 Stm32f10xx_Common.o
 .data          0x0000000020000000        0x0 Stm32f10xx_GPIO.o
 .data          0x0000000020000000        0x0 Stm32f10xx_RCC.o
 .data          0x0000000020000000        0x0 Stm32f10xx_Timers.o
 *(.data.*)
                0x0000000020000000                _E_DATA = .

.igot.plt       0x0000000020000000        0x0 load address 0x0000000008000d1b
 .igot.plt      0x0000000020000000        0x0 main.o

.bss            0x0000000020000000      0x7f0 load address 0x0000000008000d1b
                0x0000000020000000                _S_bss = .
 *(.bss)
 .bss           0x0000000020000000        0x0 main.o
 .bss           0x0000000020000000        0x0 startup.o
 .bss           0x0000000020000000        0x0 Stm32f10x_DMA.o
 .bss           0x0000000020000000        0x0 Stm32f10xx_Common.o
 .bss           0x0000000020000000        0x0 Stm32f10xx_GPIO.o
 .bss           0x0000000020000000        0x4 Stm32f10xx_RCC.o
 .bss           0x0000000020000004        0x0 Stm32f10xx_Timers.o
 *(.bss.*)
                0x0000000020000004                . = ALIGN (0x4)
                0x0000000020000004                _E_bss = .
                0x0000000020000004                . = ALIGN (0x4)
                0x00000000200003ec                . = (. + 0x3e8)
 *fill*         0x0000000020000004      0x3e8 
                0x00000000200003ec                _heap_End = .
                0x00000000200003ec                . = ALIGN (0x4)
                0x00000000200007d4                . = (. + 0x3e8)
 *fill*         0x00000000200003ec      0x3e8 
                0x00000000200007d4                _stack_top = .
 COMMON         0x00000000200007d4       0x1c Stm32f10xx_Timers.o
                0x00000000200007d4                tim1_config
LOAD main.o
LOAD startup.o
LOAD Stm32f10x_DMA.o
LOAD Stm32f10xx_Common.o
LOAD Stm32f10xx_GPIO.o
LOAD Stm32f10xx_RCC.o
LOAD Stm32f10xx_Timers.o
OUTPUT(learn_embedded.axf elf32-littlearm)
LOAD linker stubs

.debug_info     0x0000000000000000     0x1e91
 .debug_info    0x0000000000000000      0x38c main.o
 .debug_info    0x000000000000038c      0x18b startup.o
 .debug_info    0x0000000000000517      0xc3d Stm32f10x_DMA.o
 .debug_info    0x0000000000001154      0x1ad Stm32f10xx_Common.o
 .debug_info    0x0000000000001301      0x59d Stm32f10xx_GPIO.o
 .debug_info    0x000000000000189e      0x2d6 Stm32f10xx_RCC.o
 .debug_info    0x0000000000001b74      0x31d Stm32f10xx_Timers.o

.debug_abbrev   0x0000000000000000      0x89a
 .debug_abbrev  0x0000000000000000      0x17c main.o
 .debug_abbrev  0x000000000000017c       0xe4 startup.o
 .debug_abbrev  0x0000000000000260      0x216 Stm32f10x_DMA.o
 .debug_abbrev  0x0000000000000476       0xd9 Stm32f10xx_Common.o
 .debug_abbrev  0x000000000000054f      0x175 Stm32f10xx_GPIO.o
 .debug_abbrev  0x00000000000006c4       0xfe Stm32f10xx_RCC.o
 .debug_abbrev  0x00000000000007c2       0xd8 Stm32f10xx_Timers.o

.debug_aranges  0x0000000000000000       0xe0
 .debug_aranges
                0x0000000000000000       0x20 main.o
 .debug_aranges
                0x0000000000000020       0x20 startup.o
 .debug_aranges
                0x0000000000000040       0x20 Stm32f10x_DMA.o
 .debug_aranges
                0x0000000000000060       0x20 Stm32f10xx_Common.o
 .debug_aranges
                0x0000000000000080       0x20 Stm32f10xx_GPIO.o
 .debug_aranges
                0x00000000000000a0       0x20 Stm32f10xx_RCC.o
 .debug_aranges
                0x00000000000000c0       0x20 Stm32f10xx_Timers.o

.debug_line     0x0000000000000000     0x1481
 .debug_line    0x0000000000000000      0x25b main.o
 .debug_line    0x000000000000025b      0x240 startup.o
 .debug_line    0x000000000000049b      0x445 Stm32f10x_DMA.o
 .debug_line    0x00000000000008e0      0x25b Stm32f10xx_Common.o
 .debug_line    0x0000000000000b3b      0x433 Stm32f10xx_GPIO.o
 .debug_line    0x0000000000000f6e      0x2cc Stm32f10xx_RCC.o
 .debug_line    0x000000000000123a      0x247 Stm32f10xx_Timers.o

.debug_str      0x0000000000000000      0xc50
 .debug_str     0x0000000000000000      0x212 main.o
                                        0x266 (size before relaxing)
 .debug_str     0x0000000000000212       0x7f startup.o
                                        0x1d0 (size before relaxing)
 .debug_str     0x0000000000000291      0x566 Stm32f10x_DMA.o
                                        0x707 (size before relaxing)
 .debug_str     0x00000000000007f7       0x5d Stm32f10xx_Common.o
                                        0x1ce (size before relaxing)
 .debug_str     0x0000000000000854      0x219 Stm32f10xx_GPIO.o
                                        0x3b7 (size before relaxing)
 .debug_str     0x0000000000000a6d       0x99 Stm32f10xx_RCC.o
                                        0x2ad (size before relaxing)
 .debug_str     0x0000000000000b06      0x14a Stm32f10xx_Timers.o
                                        0x330 (size before relaxing)

.comment        0x0000000000000000       0x53
 .comment       0x0000000000000000       0x53 main.o
                                         0x54 (size before relaxing)
 .comment       0x0000000000000053       0x54 startup.o
 .comment       0x0000000000000053       0x54 Stm32f10x_DMA.o
 .comment       0x0000000000000053       0x54 Stm32f10xx_Common.o
 .comment       0x0000000000000053       0x54 Stm32f10xx_GPIO.o
 .comment       0x0000000000000053       0x54 Stm32f10xx_RCC.o
 .comment       0x0000000000000053       0x54 Stm32f10xx_Timers.o

.ARM.attributes
                0x0000000000000000       0x2d
 .ARM.attributes
                0x0000000000000000       0x2d main.o
 .ARM.attributes
                0x000000000000002d       0x2d startup.o
 .ARM.attributes
                0x000000000000005a       0x2d Stm32f10x_DMA.o
 .ARM.attributes
                0x0000000000000087       0x2d Stm32f10xx_Common.o
 .ARM.attributes
                0x00000000000000b4       0x2d Stm32f10xx_GPIO.o
 .ARM.attributes
                0x00000000000000e1       0x2d Stm32f10xx_RCC.o
 .ARM.attributes
                0x000000000000010e       0x2d Stm32f10xx_Timers.o

.debug_frame    0x0000000000000000      0x564
 .debug_frame   0x0000000000000000       0xb0 main.o
 .debug_frame   0x00000000000000b0       0x50 startup.o
 .debug_frame   0x0000000000000100      0x150 Stm32f10x_DMA.o
 .debug_frame   0x0000000000000250       0x60 Stm32f10xx_Common.o
 .debug_frame   0x00000000000002b0      0x1c8 Stm32f10xx_GPIO.o
 .debug_frame   0x0000000000000478       0xb4 Stm32f10xx_RCC.o
 .debug_frame   0x000000000000052c       0x38 Stm32f10xx_Timers.o
