
Memory Configuration

Name             Origin             Length             Attributes
FLASH            0x0000000008000000 0x0000000000020000 xr
SRAM             0x0000000020000000 0x0000000000005000 xrw
*default*        0x0000000000000000 0xffffffffffffffff

Linker script and memory map


.text           0x0000000008000000      0xcd4
 *(.vectors*)
 .vectors       0x0000000008000000       0xec startup.o
                0x0000000008000000                vectors
 *(.text*)
 .text          0x00000000080000ec        0x0 Key_pad_Driver.o
 .text          0x00000000080000ec      0x590 LCD_Driver.o
                0x00000000080000ec                _delay_ms
                0x0000000008000126                Kick_Enable_pin
                0x0000000008000160                LCD_init
                0x000000000800022c                Check_BF
                0x000000000800029c                Shift_R_Cursor
                0x00000000080002b4                Shift_L_Cursor
                0x00000000080002cc                Read_Cursor_Add
                0x00000000080002e0                Write_Character
                0x0000000008000340                Write_Character_with_coordinator
                0x00000000080003ac                Write_String
                0x00000000080003dc                Write_String_with_coordinator
                0x0000000008000424                Jump_to_coordinator
                0x0000000008000468                Write_Command
                0x00000000080004c6                write_first_raw_with_rot
                0x0000000008000558                write_with_move
                0x0000000008000664                clean_Lcd
 .text          0x000000000800067c       0xa8 main.o
                0x000000000800067c                main
                0x00000000080006bc                config
 .text          0x0000000008000724       0x8c startup.o
                0x0000000008000724                FLASH_Handler
                0x0000000008000724                SVCall_Handler
                0x0000000008000724                SysTick_Handler
                0x0000000008000724                PendSv_Handler
                0x0000000008000724                USART3_Handler
                0x0000000008000724                DMA1_Channel7_Handler
                0x0000000008000724                NMI_Handler
                0x0000000008000724                DMA1_Channel6_Handler
                0x0000000008000724                CAN1_RX1_Handler
                0x0000000008000724                EXTI15_10_Handler
                0x0000000008000724                I2C1_EV_Handler
                0x0000000008000724                Bus_Fault_Handler
                0x0000000008000724                ADC1_2_Handler
                0x0000000008000724                WWDG_Handler
                0x0000000008000724                EXTI4_Handler
                0x0000000008000724                DMA1_Channel1_Handler
                0x0000000008000724                I2C1_ER_Handler
                0x0000000008000724                RTC_Handler
                0x0000000008000724                TIM1_CC_Handler
                0x0000000008000724                I2C2_ER_Handler
                0x0000000008000724                CAN1_SCE_Handler
                0x0000000008000724                TIM1_BRK_Handler
                0x0000000008000724                MM_Fault_Handler
                0x0000000008000724                EXTI1_Handler
                0x0000000008000724                TEMPER_Handler
                0x0000000008000724                EXTI3_Handler
                0x0000000008000724                EXTI2_Handler
                0x0000000008000724                EXTI9_5_Handler
                0x0000000008000724                TIM2_Handler
                0x0000000008000724                USART1_Handler
                0x0000000008000724                DMA1_Channel4_Handler
                0x0000000008000724                TIM3_Handler
                0x0000000008000724                Default_Handler
                0x0000000008000724                USBWakeUp_Handler
                0x0000000008000724                DMA1_Channel3_Handler
                0x0000000008000724                RTC_Alarm_Handler
                0x0000000008000724                TIM4_Handler
                0x0000000008000724                SPI2_Handler
                0x0000000008000724                DMA1_Channel2_Handler
                0x0000000008000724                EXTI0_Handler
                0x0000000008000724                Usage_Fault_Handler
                0x0000000008000724                TIM1_UP_Handler
                0x0000000008000724                DMA1_Channel5_Handler
                0x0000000008000724                USART2_Handler
                0x0000000008000724                SPI1_Handler
                0x0000000008000724                DebugMonitor_Handler
                0x0000000008000724                I2C2_EV_Handler
                0x0000000008000724                RCC_Handler
                0x0000000008000724                PVD_Handler
                0x0000000008000724                Hard_Fault_Handler
                0x0000000008000724                USB_LP_CAN1_RX0_Handler
                0x0000000008000724                USB_HP_CAN1_TX_Handler
                0x0000000008000724                TIM1_TRG_COM_Handler
                0x0000000008000730                Rest_Handler
 .text          0x00000000080007b0       0x28 Stm32f10xx_EXTI.o
                0x00000000080007b0                EXTI_EXTI_Clear_Handler
 .text          0x00000000080007d8      0x4fc Stm32f10xx_GPIO.o
                0x00000000080007d8                Init_GPIO
                0x0000000008000ad4                Set_pin
                0x0000000008000af0                Reset_pin
                0x0000000008000b10                Toggle_pin
                0x0000000008000b32                Read_pin
                0x0000000008000b5a                Set_GPIO_Value
                0x0000000008000b74                Reset_GPIO
                0x0000000008000b90                Read_GPIO
                0x0000000008000ba8                Lock_GPIO
                0x0000000008000c02                Deinit_GPIO
 *(.rodata)
                0x0000000008000cd4                _E_text = .

.glue_7         0x0000000008000cd4        0x0
 .glue_7        0x0000000008000cd4        0x0 linker stubs

.glue_7t        0x0000000008000cd4        0x0
 .glue_7t       0x0000000008000cd4        0x0 linker stubs

.vfp11_veneer   0x0000000008000cd4        0x0
 .vfp11_veneer  0x0000000008000cd4        0x0 linker stubs

.v4_bx          0x0000000008000cd4        0x0
 .v4_bx         0x0000000008000cd4        0x0 linker stubs

.iplt           0x0000000008000cd4        0x0
 .iplt          0x0000000008000cd4        0x0 LCD_Driver.o

.rel.dyn        0x0000000008000cd4        0x0
 .rel.iplt      0x0000000008000cd4        0x0 LCD_Driver.o

.data           0x0000000020000000        0x0 load address 0x0000000008000cd4
                0x0000000020000000                _S_DATA = .
 *(.data)
 .data          0x0000000020000000        0x0 Key_pad_Driver.o
 .data          0x0000000020000000        0x0 LCD_Driver.o
 .data          0x0000000020000000        0x0 main.o
 .data          0x0000000020000000        0x0 startup.o
 .data          0x0000000020000000        0x0 Stm32f10xx_EXTI.o
 .data          0x0000000020000000        0x0 Stm32f10xx_GPIO.o
 *(.data.*)
                0x0000000020000000                _E_DATA = .

.igot.plt       0x0000000020000000        0x0 load address 0x0000000008000cd4
 .igot.plt      0x0000000020000000        0x0 LCD_Driver.o

.bss            0x0000000020000000      0x804 load address 0x0000000008000cd4
                0x0000000020000000                _S_bss = .
 *(.bss)
 .bss           0x0000000020000000        0x0 Key_pad_Driver.o
 .bss           0x0000000020000000       0x15 LCD_Driver.o
 *fill*         0x0000000020000015        0x3 
 .bss           0x0000000020000018       0x1c main.o
                0x0000000020000018                Lcd_config
 .bss           0x0000000020000034        0x0 startup.o
 .bss           0x0000000020000034        0x0 Stm32f10xx_EXTI.o
 .bss           0x0000000020000034        0x0 Stm32f10xx_GPIO.o
 *(.bss.*)
                0x0000000020000034                . = ALIGN (0x4)
                0x0000000020000034                _E_bss = .
                0x0000000020000034                . = ALIGN (0x4)
                0x000000002000041c                . = (. + 0x3e8)
 *fill*         0x0000000020000034      0x3e8 
                0x000000002000041c                _heap_End = .
                0x000000002000041c                . = ALIGN (0x4)
                0x0000000020000804                . = (. + 0x3e8)
 *fill*         0x000000002000041c      0x3e8 
                0x0000000020000804                _stack_top = .
LOAD Key_pad_Driver.o
LOAD LCD_Driver.o
LOAD main.o
LOAD startup.o
LOAD Stm32f10xx_EXTI.o
LOAD Stm32f10xx_GPIO.o
OUTPUT(learn_embedded.axf elf32-littlearm)
LOAD linker stubs

.debug_line     0x0000000000000000      0xf69
 .debug_line    0x0000000000000000        0x0 Key_pad_Driver.o
 .debug_line    0x0000000000000000      0x3bb LCD_Driver.o
 .debug_line    0x00000000000003bb      0x31e main.o
 .debug_line    0x00000000000006d9      0x240 startup.o
 .debug_line    0x0000000000000919      0x1f2 Stm32f10xx_EXTI.o
 .debug_line    0x0000000000000b0b      0x45e Stm32f10xx_GPIO.o

.debug_str      0x0000000000000000      0xa11
 .debug_str     0x0000000000000000       0xcb Key_pad_Driver.o
 .debug_str     0x00000000000000cb      0x2d7 LCD_Driver.o
                                        0x3e6 (size before relaxing)
 .debug_str     0x00000000000003a2      0x459 main.o
                                        0x69e (size before relaxing)
 .debug_str     0x00000000000007fb       0x7f startup.o
                                        0x1d1 (size before relaxing)
 .debug_str     0x000000000000087a       0x73 Stm32f10xx_EXTI.o
                                        0x1c5 (size before relaxing)
 .debug_str     0x00000000000008ed      0x124 Stm32f10xx_GPIO.o
                                        0x3ea (size before relaxing)

.comment        0x0000000000000000       0x53
 .comment       0x0000000000000000       0x53 Key_pad_Driver.o
                                         0x54 (size before relaxing)
 .comment       0x0000000000000053       0x54 LCD_Driver.o
 .comment       0x0000000000000053       0x54 main.o
 .comment       0x0000000000000053       0x54 startup.o
 .comment       0x0000000000000053       0x54 Stm32f10xx_EXTI.o
 .comment       0x0000000000000053       0x54 Stm32f10xx_GPIO.o

.ARM.attributes
                0x0000000000000000       0x33
 .ARM.attributes
                0x0000000000000000       0x33 Key_pad_Driver.o
 .ARM.attributes
                0x0000000000000033       0x2d LCD_Driver.o
 .ARM.attributes
                0x0000000000000060       0x2d main.o
 .ARM.attributes
                0x000000000000008d       0x2d startup.o
 .ARM.attributes
                0x00000000000000ba       0x2d Stm32f10xx_EXTI.o
 .ARM.attributes
                0x00000000000000e7       0x2d Stm32f10xx_GPIO.o

.debug_info     0x0000000000000000     0x1c47
 .debug_info    0x0000000000000000      0x6f9 LCD_Driver.o
 .debug_info    0x00000000000006f9      0xc62 main.o
 .debug_info    0x000000000000135b      0x1a1 startup.o
 .debug_info    0x00000000000014fc      0x120 Stm32f10xx_EXTI.o
 .debug_info    0x000000000000161c      0x62b Stm32f10xx_GPIO.o

.debug_abbrev   0x0000000000000000      0x68f
 .debug_abbrev  0x0000000000000000      0x1ac LCD_Driver.o
 .debug_abbrev  0x00000000000001ac      0x1e1 main.o
 .debug_abbrev  0x000000000000038d       0xe4 startup.o
 .debug_abbrev  0x0000000000000471       0x8b Stm32f10xx_EXTI.o
 .debug_abbrev  0x00000000000004fc      0x193 Stm32f10xx_GPIO.o

.debug_loc      0x0000000000000000      0x9ec
 .debug_loc     0x0000000000000000      0x518 LCD_Driver.o
 .debug_loc     0x0000000000000518       0x64 main.o
 .debug_loc     0x000000000000057c       0x7c startup.o
 .debug_loc     0x00000000000005f8       0x5c Stm32f10xx_EXTI.o
 .debug_loc     0x0000000000000654      0x398 Stm32f10xx_GPIO.o

.debug_aranges  0x0000000000000000       0xa0
 .debug_aranges
                0x0000000000000000       0x20 LCD_Driver.o
 .debug_aranges
                0x0000000000000020       0x20 main.o
 .debug_aranges
                0x0000000000000040       0x20 startup.o
 .debug_aranges
                0x0000000000000060       0x20 Stm32f10xx_EXTI.o
 .debug_aranges
                0x0000000000000080       0x20 Stm32f10xx_GPIO.o

.debug_frame    0x0000000000000000      0x4cc
 .debug_frame   0x0000000000000000      0x258 LCD_Driver.o
 .debug_frame   0x0000000000000258       0x4c main.o
 .debug_frame   0x00000000000002a4       0x50 startup.o
 .debug_frame   0x00000000000002f4       0x38 Stm32f10xx_EXTI.o
 .debug_frame   0x000000000000032c      0x1a0 Stm32f10xx_GPIO.o
