
Allocating common symbols
Common symbol       size              file

GP_EXTI_CallBack    0x40              Stm32f10xx_EXTI.o

Memory Configuration

Name             Origin             Length             Attributes
FLASH            0x0000000008002400 0x0000000000002800 xr
SRAM             0x0000000020000000 0x0000000000002800 xrw
*default*        0x0000000000000000 0xffffffffffffffff

Linker script and memory map


.text           0x0000000008002400     0x1dc3
 *(.vectors*)
 .vectors       0x0000000008002400       0xec startup.o
                0x0000000008002400                vectors
 *(.text*)
 .text          0x00000000080024ec      0x158 Application.o
                0x000000000800253c                config_Drives_and_Perpherals
                0x0000000008002600                Rx_Uart1
                0x0000000008002612                Infinite_loop
 .text          0x0000000008002644        0x0 Buffer.o
 .text          0x0000000008002644       0x74 main.o
                0x0000000008002644                main
 .text          0x00000000080026b8       0x9c startup.o
                0x00000000080026b8                FLASH_Handler
                0x00000000080026b8                SVCall_Handler
                0x00000000080026b8                SysTick_Handler
                0x00000000080026b8                PendSv_Handler
                0x00000000080026b8                DMA1_Channel7_Handler
                0x00000000080026b8                NMI_Handler
                0x00000000080026b8                DMA1_Channel6_Handler
                0x00000000080026b8                CAN1_RX1_Handler
                0x00000000080026b8                I2C1_EV_Handler
                0x00000000080026b8                Bus_Fault_Handler
                0x00000000080026b8                ADC1_2_Handler
                0x00000000080026b8                WWDG_Handler
                0x00000000080026b8                DMA1_Channel1_Handler
                0x00000000080026b8                I2C1_ER_Handler
                0x00000000080026b8                RTC_Handler
                0x00000000080026b8                TIM1_CC_Handler
                0x00000000080026b8                I2C2_ER_Handler
                0x00000000080026b8                CAN1_SCE_Handler
                0x00000000080026b8                TIM1_BRK_Handler
                0x00000000080026b8                MM_Fault_Handler
                0x00000000080026b8                TEMPER_Handler
                0x00000000080026b8                TIM2_Handler
                0x00000000080026b8                DMA1_Channel4_Handler
                0x00000000080026b8                TIM3_Handler
                0x00000000080026b8                Default_Handler
                0x00000000080026b8                USBWakeUp_Handler
                0x00000000080026b8                DMA1_Channel3_Handler
                0x00000000080026b8                RTC_Alarm_Handler
                0x00000000080026b8                TIM4_Handler
                0x00000000080026b8                SPI2_Handler
                0x00000000080026b8                DMA1_Channel2_Handler
                0x00000000080026b8                Usage_Fault_Handler
                0x00000000080026b8                TIM1_UP_Handler
                0x00000000080026b8                DMA1_Channel5_Handler
                0x00000000080026b8                SPI1_Handler
                0x00000000080026b8                DebugMonitor_Handler
                0x00000000080026b8                I2C2_EV_Handler
                0x00000000080026b8                RCC_Handler
                0x00000000080026b8                PVD_Handler
                0x00000000080026b8                Hard_Fault_Handler
                0x00000000080026b8                USB_LP_CAN1_RX0_Handler
                0x00000000080026b8                USB_HP_CAN1_TX_Handler
                0x00000000080026b8                TIM1_TRG_COM_Handler
                0x00000000080026c4                Rest_Handler
 .text          0x0000000008002754       0xa4 Stm32_f10xx_Systick.o
                0x000000000800278c                Init_Systick
 .text          0x00000000080027f8      0x288 Stm32f10x_DMA.o
                0x00000000080027f8                DMA_Init
                0x00000000080028a2                DMA_ReInit
                0x0000000008002902                DMA_Set_Number_of_Data
                0x000000000800297c                DMA_Set_Peripheral_Add
                0x00000000080029ac                DMA_Set_Memory_Add
                0x00000000080029dc                DMA_Enable_Channel
                0x0000000008002a24                DMA_Disable_Channel
                0x0000000008002a6c                DMA_Soft_Trigger
 .text          0x0000000008002a80      0x9fc Stm32f10x_UART.o
                0x0000000008002b44                Set_BaudRate
                0x0000000008002c0c                Get_BaudRate
                0x0000000008002c20                Init_Uart
                0x0000000008002ef8                DeInit_Uart
                0x0000000008002f74                _Config_GPIO_f
                0x0000000008003058                Send_Char_Uart
                0x00000000080030ac                Receive_Char_Uart
                0x0000000008003140                Receive_String_Uart
                0x000000000800316c                Send_Text_Uart
                0x00000000080031f0                Send_String_Uart
                0x000000000800322a                USART1_Handler
                0x00000000080032ec                USART2_Handler
                0x00000000080033b0                USART3_Handler
                0x00000000080033bc                Parity_CallBack_UART
                0x00000000080033ce                Error_CallBack_UART
                0x00000000080033e0                Tx_CallBack_UART
                0x00000000080033f2                Tx_Comp_CallBack_UART
                0x0000000008003404                Rx_CallBack_UART
                0x0000000008003444                IDLE_CallBack_UART
                0x0000000008003456                Lin_BK_CallBack_UART
                0x0000000008003468                FlowCt_CallBack_UART
 .text          0x000000000800347c      0x4d4 Stm32f10xx_EXTI.o
                0x00000000080034f0                NVIC_EXTI_Clear_Handler
                0x0000000008003518                Init_EXTI
                0x000000000800352e                Deinit_EXTI
                0x00000000080035d8                Upadate_EXTI
                0x00000000080035ee                Config_EXTI
                0x0000000008003734                NVIC_Enable_IRQ
                0x0000000008003750                NVIC_Disable_IRQ
                0x000000000800376c                EXTI0_Handler
                0x0000000008003784                EXTI1_Handler
                0x000000000800379c                EXTI2_Handler
                0x00000000080037b4                EXTI3_Handler
                0x00000000080037cc                EXTI4_Handler
                0x00000000080037e4                EXTI9_5_Handler
                0x000000000800388c                EXTI15_10_Handler
 .text          0x0000000008003950      0x488 Stm32f10xx_GPIO.o
                0x0000000008003950                Init_GPIO
                0x0000000008003ba4                Set_pin
                0x0000000008003bc0                Reset_pin
                0x0000000008003be0                Change_State_Pin
                0x0000000008003c12                Toggle_pin
                0x0000000008003c34                Read_pin
                0x0000000008003c5c                Set_GPIO_Value
                0x0000000008003c76                Reset_GPIO
                0x0000000008003c94                Read_GPIO
                0x0000000008003cac                Lock_GPIO
                0x0000000008003d06                Deinit_GPIO
 .text          0x0000000008003dd8      0x1a4 Stm32f10xx_RCC.o
                0x0000000008003dd8                Get_Systick_Freq
                0x0000000008003ec4                Get_HCLK_Freq
                0x0000000008003ef0                Get_APB1_Freq
                0x0000000008003f18                Get_APB2_Freq
                0x0000000008003f40                Set_HSE_CLK_Freq
 *(.rodata)
 .rodata        0x0000000008003f7c        0x2 Application.o
                0x0000000008003f7c                BL_Version
 *fill*         0x0000000008003f7e        0x2 
 .rodata        0x0000000008003f80      0x200 Stm32f10xx_EXTI.o
                0x0000000008003f80                EXTI_Streem
 .rodata        0x0000000008004180       0x43 Stm32f10xx_RCC.o
                0x00000000080041c3                _E_text = .

.glue_7         0x00000000080041c4        0x0
 .glue_7        0x00000000080041c4        0x0 linker stubs

.glue_7t        0x00000000080041c4        0x0
 .glue_7t       0x00000000080041c4        0x0 linker stubs

.vfp11_veneer   0x00000000080041c4        0x0
 .vfp11_veneer  0x00000000080041c4        0x0 linker stubs

.v4_bx          0x00000000080041c4        0x0
 .v4_bx         0x00000000080041c4        0x0 linker stubs

.iplt           0x00000000080041c4        0x0
 .iplt          0x00000000080041c4        0x0 Application.o

.rel.dyn        0x00000000080041c4        0x0
 .rel.iplt      0x00000000080041c4        0x0 Application.o

.data           0x0000000020000000        0x0 load address 0x00000000080041c3
                0x0000000020000000                _S_DATA = .
 *(.data)
 .data          0x0000000020000000        0x0 Application.o
 .data          0x0000000020000000        0x0 Buffer.o
 .data          0x0000000020000000        0x0 main.o
 .data          0x0000000020000000        0x0 startup.o
 .data          0x0000000020000000        0x0 Stm32_f10xx_Systick.o
 .data          0x0000000020000000        0x0 Stm32f10x_DMA.o
 .data          0x0000000020000000        0x0 Stm32f10x_UART.o
 .data          0x0000000020000000        0x0 Stm32f10xx_EXTI.o
 .data          0x0000000020000000        0x0 Stm32f10xx_GPIO.o
 .data          0x0000000020000000        0x0 Stm32f10xx_RCC.o
 *(.data.*)
                0x0000000020000000                _E_DATA = .

.igot.plt       0x0000000020000000        0x0 load address 0x00000000080041c3
 .igot.plt      0x0000000020000000        0x0 Application.o

.bss            0x0000000020000000      0x8a8 load address 0x00000000080041c3
                0x0000000020000000                _S_bss = .
 *(.bss)
 .bss           0x0000000020000000       0x84 Application.o
                0x0000000020000000                uart1_config
                0x0000000020000038                uart2_config
                0x0000000020000070                LEDS
 .bss           0x0000000020000084        0x0 Buffer.o
 .bss           0x0000000020000084        0x0 main.o
 .bss           0x0000000020000084        0x0 startup.o
 .bss           0x0000000020000084       0x10 Stm32_f10xx_Systick.o
                0x0000000020000084                Systick_API
 .bss           0x0000000020000094        0x0 Stm32f10x_DMA.o
 .bss           0x0000000020000094        0x0 Stm32f10x_UART.o
 .bss           0x0000000020000094        0x0 Stm32f10xx_EXTI.o
 .bss           0x0000000020000094        0x0 Stm32f10xx_GPIO.o
 .bss           0x0000000020000094        0x4 Stm32f10xx_RCC.o
 *(.bss.*)
                0x0000000020000098                . = ALIGN (0x4)
                0x0000000020000098                _E_bss = .
                0x0000000020000098                . = ALIGN (0x4)
                0x0000000020000480                . = (. + 0x3e8)
 *fill*         0x0000000020000098      0x3e8 
                0x0000000020000480                _heap_End = .
                0x0000000020000480                . = ALIGN (0x4)
                0x0000000020000868                . = (. + 0x3e8)
 *fill*         0x0000000020000480      0x3e8 
                0x0000000020000868                _stack_top = .
 COMMON         0x0000000020000868       0x40 Stm32f10xx_EXTI.o
                0x0000000020000868                GP_EXTI_CallBack
LOAD Application.o
LOAD Buffer.o
LOAD main.o
LOAD startup.o
LOAD Stm32_f10xx_Systick.o
LOAD Stm32f10x_DMA.o
LOAD Stm32f10x_UART.o
LOAD Stm32f10xx_EXTI.o
LOAD Stm32f10xx_GPIO.o
LOAD Stm32f10xx_RCC.o
OUTPUT(learn_embedded.axf elf32-littlearm)
LOAD linker stubs

.debug_info     0x0000000000000000     0x51f3
 .debug_info    0x0000000000000000      0xdd5 Application.o
 .debug_info    0x0000000000000dd5      0xb98 main.o
 .debug_info    0x000000000000196d      0x34f startup.o
 .debug_info    0x0000000000001cbc      0x402 Stm32_f10xx_Systick.o
 .debug_info    0x00000000000020be      0xc3d Stm32f10x_DMA.o
 .debug_info    0x0000000000002cfb     0x1488 Stm32f10x_UART.o
 .debug_info    0x0000000000004183      0x7fd Stm32f10xx_EXTI.o
 .debug_info    0x0000000000004980      0x59d Stm32f10xx_GPIO.o
 .debug_info    0x0000000000004f1d      0x2d6 Stm32f10xx_RCC.o

.debug_abbrev   0x0000000000000000     0x10f9
 .debug_abbrev  0x0000000000000000      0x257 Application.o
 .debug_abbrev  0x0000000000000257      0x1fd main.o
 .debug_abbrev  0x0000000000000454      0x12b startup.o
 .debug_abbrev  0x000000000000057f      0x154 Stm32_f10xx_Systick.o
 .debug_abbrev  0x00000000000006d3      0x216 Stm32f10x_DMA.o
 .debug_abbrev  0x00000000000008e9      0x3c0 Stm32f10x_UART.o
 .debug_abbrev  0x0000000000000ca9      0x1dd Stm32f10xx_EXTI.o
 .debug_abbrev  0x0000000000000e86      0x175 Stm32f10xx_GPIO.o
 .debug_abbrev  0x0000000000000ffb       0xfe Stm32f10xx_RCC.o

.debug_aranges  0x0000000000000000      0x120
 .debug_aranges
                0x0000000000000000       0x20 Application.o
 .debug_aranges
                0x0000000000000020       0x20 main.o
 .debug_aranges
                0x0000000000000040       0x20 startup.o
 .debug_aranges
                0x0000000000000060       0x20 Stm32_f10xx_Systick.o
 .debug_aranges
                0x0000000000000080       0x20 Stm32f10x_DMA.o
 .debug_aranges
                0x00000000000000a0       0x20 Stm32f10x_UART.o
 .debug_aranges
                0x00000000000000c0       0x20 Stm32f10xx_EXTI.o
 .debug_aranges
                0x00000000000000e0       0x20 Stm32f10xx_GPIO.o
 .debug_aranges
                0x0000000000000100       0x20 Stm32f10xx_RCC.o

.debug_line     0x0000000000000000     0x2476
 .debug_line    0x0000000000000000      0x38f Application.o
 .debug_line    0x000000000000038f        0x0 Buffer.o
 .debug_line    0x000000000000038f      0x2ed main.o
 .debug_line    0x000000000000067c      0x260 startup.o
 .debug_line    0x00000000000008dc      0x287 Stm32_f10xx_Systick.o
 .debug_line    0x0000000000000b63      0x445 Stm32f10x_DMA.o
 .debug_line    0x0000000000000fa8      0x943 Stm32f10x_UART.o
 .debug_line    0x00000000000018eb      0x48c Stm32f10xx_EXTI.o
 .debug_line    0x0000000000001d77      0x433 Stm32f10xx_GPIO.o
 .debug_line    0x00000000000021aa      0x2cc Stm32f10xx_RCC.o

.debug_str      0x0000000000000000     0x147e
 .debug_str     0x0000000000000000      0x7f6 Application.o
                                        0x88c (size before relaxing)
 .debug_str     0x00000000000007f6        0x9 Buffer.o
                                         0xc1 (size before relaxing)
 .debug_str     0x00000000000007ff       0x68 main.o
                                        0x689 (size before relaxing)
 .debug_str     0x0000000000000867       0xd9 startup.o
                                        0x245 (size before relaxing)
 .debug_str     0x0000000000000940      0x385 Stm32_f10xx_Systick.o
                                        0x577 (size before relaxing)
 .debug_str     0x0000000000000cc5      0x1a4 Stm32f10x_DMA.o
                                        0x706 (size before relaxing)
 .debug_str     0x0000000000000e69      0x1eb Stm32f10x_UART.o
                                        0xdbc (size before relaxing)
 .debug_str     0x0000000000001054      0x297 Stm32f10xx_EXTI.o
                                        0x81c (size before relaxing)
 .debug_str     0x00000000000012eb       0xfa Stm32f10xx_GPIO.o
                                        0x3b6 (size before relaxing)
 .debug_str     0x00000000000013e5       0x99 Stm32f10xx_RCC.o
                                        0x2ac (size before relaxing)

.comment        0x0000000000000000       0x53
 .comment       0x0000000000000000       0x53 Application.o
                                         0x54 (size before relaxing)
 .comment       0x0000000000000053       0x54 Buffer.o
 .comment       0x0000000000000053       0x54 main.o
 .comment       0x0000000000000053       0x54 startup.o
 .comment       0x0000000000000053       0x54 Stm32_f10xx_Systick.o
 .comment       0x0000000000000053       0x54 Stm32f10x_DMA.o
 .comment       0x0000000000000053       0x54 Stm32f10x_UART.o
 .comment       0x0000000000000053       0x54 Stm32f10xx_EXTI.o
 .comment       0x0000000000000053       0x54 Stm32f10xx_GPIO.o
 .comment       0x0000000000000053       0x54 Stm32f10xx_RCC.o

.ARM.attributes
                0x0000000000000000       0x2d
 .ARM.attributes
                0x0000000000000000       0x2d Application.o
 .ARM.attributes
                0x000000000000002d       0x33 Buffer.o
 .ARM.attributes
                0x0000000000000060       0x2d main.o
 .ARM.attributes
                0x000000000000008d       0x2d startup.o
 .ARM.attributes
                0x00000000000000ba       0x2d Stm32_f10xx_Systick.o
 .ARM.attributes
                0x00000000000000e7       0x2d Stm32f10x_DMA.o
 .ARM.attributes
                0x0000000000000114       0x2d Stm32f10x_UART.o
 .ARM.attributes
                0x0000000000000141       0x2d Stm32f10xx_EXTI.o
 .ARM.attributes
                0x000000000000016e       0x2d Stm32f10xx_GPIO.o
 .ARM.attributes
                0x000000000000019b       0x2d Stm32f10xx_RCC.o

.debug_frame    0x0000000000000000      0xaf0
 .debug_frame   0x0000000000000000       0x98 Application.o
 .debug_frame   0x0000000000000098       0x30 main.o
 .debug_frame   0x00000000000000c8       0x50 startup.o
 .debug_frame   0x0000000000000118       0x54 Stm32_f10xx_Systick.o
 .debug_frame   0x000000000000016c      0x150 Stm32f10x_DMA.o
 .debug_frame   0x00000000000002bc      0x398 Stm32f10x_UART.o
 .debug_frame   0x0000000000000654      0x220 Stm32f10xx_EXTI.o
 .debug_frame   0x0000000000000874      0x1c8 Stm32f10xx_GPIO.o
 .debug_frame   0x0000000000000a3c       0xb4 Stm32f10xx_RCC.o
