
Allocating common symbols
Common symbol       size              file

GP_EXTI_CallBack    0x40              Stm32f10xx_EXTI.o
tim1_config         0x1c              Stm32f10xx_Timers.o

Memory Configuration

Name             Origin             Length             Attributes
FLASH            0x0000000008000000 0x0000000000020000 xr
SRAM             0x0000000020000000 0x0000000000005000 xrw
*default*        0x0000000000000000 0xffffffffffffffff

Linker script and memory map


.text           0x0000000008000000     0x3bb3
 *(.vectors*)
 .vectors       0x0000000008000000       0xec startup.o
                0x0000000008000000                vectors
 *(.text*)
 .text          0x00000000080000ec        0x0 Buzzer.o
 .text          0x00000000080000ec      0x158 EEPROM.o
                0x00000000080000ec                EEPORM_Init
                0x0000000008000140                EEPROM_Write_NBytes
                0x00000000080001e4                EEPROM_Read_Byte
 .text          0x0000000008000244      0x294 Key_pad_Driver.o
                0x0000000008000244                Key_pad_init
                0x00000000080002fc                Check_Keypad_Pins
                0x0000000008000364                Set_Key_Drain_Pins
                0x00000000080003dc                Check_Key_Soruce_Pins
                0x0000000008000428                Reaction_Of_Prass
                0x000000000800045c                Check_Prass_Button
 .text          0x00000000080004d8      0x64c LCD_Driver.o
                0x0000000008000528                Kick_Enable_pin
                0x0000000008000558                LCD_init
                0x0000000008000666                Check_BF
                0x00000000080006f8                Shift_R_Cursor
                0x0000000008000710                Shift_L_Cursor
                0x0000000008000728                Read_Cursor_Add
                0x000000000800073c                Write_Character
                0x0000000008000810                Write_Character_with_coordinator
                0x000000000800087c                Write_String
                0x00000000080008ac                Write_String_with_coordinator
                0x00000000080008f4                Jump_to_coordinator
                0x000000000800092c                Write_Command
                0x00000000080009fe                write_with_move
                0x0000000008000b0c                clean_Lcd
 .text          0x0000000008000b24      0x104 main.o
                0x0000000008000b24                main
                0x0000000008000b6c                config
 .text          0x0000000008000c28       0xb2 Seven_Segment.o
                0x0000000008000c28                init_seven_segment
                0x0000000008000c7e                Display_seven_segment
 *fill*         0x0000000008000cda        0x2 
 .text          0x0000000008000cdc       0x8c startup.o
                0x0000000008000cdc                FLASH_Handler
                0x0000000008000cdc                SVCall_Handler
                0x0000000008000cdc                SysTick_Handler
                0x0000000008000cdc                PendSv_Handler
                0x0000000008000cdc                DMA1_Channel7_Handler
                0x0000000008000cdc                NMI_Handler
                0x0000000008000cdc                DMA1_Channel6_Handler
                0x0000000008000cdc                CAN1_RX1_Handler
                0x0000000008000cdc                Bus_Fault_Handler
                0x0000000008000cdc                ADC1_2_Handler
                0x0000000008000cdc                WWDG_Handler
                0x0000000008000cdc                DMA1_Channel1_Handler
                0x0000000008000cdc                RTC_Handler
                0x0000000008000cdc                TIM1_CC_Handler
                0x0000000008000cdc                CAN1_SCE_Handler
                0x0000000008000cdc                TIM1_BRK_Handler
                0x0000000008000cdc                MM_Fault_Handler
                0x0000000008000cdc                TEMPER_Handler
                0x0000000008000cdc                TIM2_Handler
                0x0000000008000cdc                DMA1_Channel4_Handler
                0x0000000008000cdc                TIM3_Handler
                0x0000000008000cdc                Default_Handler
                0x0000000008000cdc                USBWakeUp_Handler
                0x0000000008000cdc                DMA1_Channel3_Handler
                0x0000000008000cdc                RTC_Alarm_Handler
                0x0000000008000cdc                TIM4_Handler
                0x0000000008000cdc                DMA1_Channel2_Handler
                0x0000000008000cdc                Usage_Fault_Handler
                0x0000000008000cdc                TIM1_UP_Handler
                0x0000000008000cdc                DMA1_Channel5_Handler
                0x0000000008000cdc                DebugMonitor_Handler
                0x0000000008000cdc                RCC_Handler
                0x0000000008000cdc                PVD_Handler
                0x0000000008000cdc                Hard_Fault_Handler
                0x0000000008000cdc                USB_LP_CAN1_RX0_Handler
                0x0000000008000cdc                USB_HP_CAN1_TX_Handler
                0x0000000008000cdc                TIM1_TRG_COM_Handler
                0x0000000008000ce8                Rest_Handler
 .text          0x0000000008000d68       0xa4 Stm32_f10xx_Systick.o
                0x0000000008000da0                Init_Systick
 .text          0x0000000008000e0c      0x868 Stm32f10x_SPI.o
                0x0000000008000e80                Init_SPI
                0x0000000008001110                Deinit_SPI
                0x000000000800118c                SPI_Send_Char
                0x00000000080011c8                SPI_Receive_Char
                0x0000000008001206                SPI_Send_String
                0x000000000800126c                SPI_Receive_String
                0x00000000080012d0                Tx_Empty_CallBack
                0x00000000080012e2                RX_Empty_CallBack
                0x00000000080012f4                Fault_Event_CallBack
                0x0000000008001306                Overrun_CallBack
                0x0000000008001318                CRC_CallBack
                0x000000000800132a                Select_SPI_Pins_datasheet
                0x00000000080013c8                Config_SPI_Pins
                0x000000000800151c                SPI1_Handler
                0x0000000008001598                SPI2_Handler
                0x0000000008001618                SPI_Tx_Rx_Char
 .text          0x0000000008001674      0x8d0 Stm32f10x_UART.o
                0x0000000008001738                Set_BaudRate
                0x0000000008001800                Get_BaudRate
                0x0000000008001814                Init_Uart
                0x0000000008001aec                DeInit_Uart
                0x0000000008001b68                _Config_GPIO_f
                0x0000000008001c4c                Send_Char_Uart
                0x0000000008001ca0                Receive_Char_Uart
                0x0000000008001d34                Receive_String_Uart
                0x0000000008001d60                Send_String_Uart
                0x0000000008001d9a                USART1_Handler
                0x0000000008001e5c                USART2_Handler
                0x0000000008001e68                USART3_Handler
                0x0000000008001e74                Parity_CallBack_UART
                0x0000000008001e86                Error_CallBack_UART
                0x0000000008001e98                Tx_CallBack_UART
                0x0000000008001eaa                Tx_Comp_CallBack_UART
                0x0000000008001ebc                Rx_CallBack_UART
                0x0000000008001f0c                IDLE_CallBack_UART
                0x0000000008001f1e                Lin_BK_CallBack_UART
                0x0000000008001f30                FlowCt_CallBack_UART
 .text          0x0000000008001f44      0x4d4 Stm32f10xx_EXTI.o
                0x0000000008001fb8                NVIC_EXTI_Clear_Handler
                0x0000000008001fe0                Init_EXTI
                0x0000000008001ff6                Deinit_EXTI
                0x00000000080020a0                Upadate_EXTI
                0x00000000080020b6                Config_EXTI
                0x00000000080021fc                NVIC_Enable_IRQ
                0x0000000008002218                NVIC_Disable_IRQ
                0x0000000008002234                EXTI0_Handler
                0x000000000800224c                EXTI1_Handler
                0x0000000008002264                EXTI2_Handler
                0x000000000800227c                EXTI3_Handler
                0x0000000008002294                EXTI4_Handler
                0x00000000080022ac                EXTI9_5_Handler
                0x0000000008002354                EXTI15_10_Handler
 .text          0x0000000008002418      0x488 Stm32f10xx_GPIO.o
                0x0000000008002418                Init_GPIO
                0x000000000800266c                Set_pin
                0x0000000008002688                Reset_pin
                0x00000000080026a8                Change_State_Pin
                0x00000000080026da                Toggle_pin
                0x00000000080026fc                Read_pin
                0x0000000008002724                Set_GPIO_Value
                0x000000000800273e                Reset_GPIO
                0x000000000800275c                Read_GPIO
                0x0000000008002774                Lock_GPIO
                0x00000000080027ce                Deinit_GPIO
 .text          0x00000000080028a0      0xeb4 Stm32f10xx_I2C.o
                0x0000000008002914                I2C_Init
                0x0000000008002ca0                I2C_Deinit
                0x0000000008002cf8                I2C_Master_Write
                0x0000000008002da8                I2C_GenerateStop
                0x0000000008002de8                I2C_Send_Add
                0x0000000008002e62                I2C_Master_Read
                0x0000000008002f1a                I2C_Slave_Write_IT
                0x0000000008002f48                I2C_Slave_Read_IT
                0x0000000008002f80                I2C_Slave_Write
                0x0000000008002fee                I2C_Slave_Read
                0x0000000008003046                I2C_GenerateStart
                0x000000000800309e                I2C_Get_FlagStatus
                0x00000000080033a4                I2C_Enable_ACK
                0x00000000080033c6                I2C_Disable_ACK
                0x00000000080033e8                SB_CallBack_I2C
                0x00000000080033fa                ADDR_CallBack_I2C
                0x000000000800343c                ADDR10_CallBack_I2C
                0x0000000008003456                STOPF_CallBack_I2C
                0x0000000008003468                BTF_CallBack_I2C
                0x000000000800347a                TXE_CallBack_I2C
                0x00000000080034ac                RXNE_CallBack_I2C
                0x00000000080034de                OVR_CallBack_I2C
                0x00000000080034f0                TIMEOUT_CallBack_I2C
                0x0000000008003502                AF_CallBack_I2C
                0x0000000008003532                I2C1_EV_Handler
                0x00000000080035e8                I2C1_ER_Handler
                0x00000000080035f4                I2C2_EV_Handler
                0x00000000080036a8                I2C2_ER_Handler
                0x00000000080036b4                I2C_Clock_Config_Pins
 .text          0x0000000008003754      0x1a4 Stm32f10xx_RCC.o
                0x0000000008003754                Get_Systick_Freq
                0x0000000008003840                Get_HCLK_Freq
                0x000000000800386c                Get_APB1_Freq
                0x0000000008003894                Get_APB2_Freq
                0x00000000080038bc                Set_HSE_CLK_Freq
 .text          0x00000000080038f8       0x70 Stm32f10xx_Timers.o
                0x00000000080038f8                Init_Timer
 *(.rodata)
 .rodata        0x0000000008003968        0x6 main.o
 *fill*         0x000000000800396e        0x2 
 .rodata        0x0000000008003970      0x200 Stm32f10xx_EXTI.o
                0x0000000008003970                EXTI_Streem
 .rodata        0x0000000008003b70       0x43 Stm32f10xx_RCC.o
                0x0000000008003bb3                _E_text = .

.glue_7         0x0000000008003bb4        0x0
 .glue_7        0x0000000008003bb4        0x0 linker stubs

.glue_7t        0x0000000008003bb4        0x0
 .glue_7t       0x0000000008003bb4        0x0 linker stubs

.vfp11_veneer   0x0000000008003bb4        0x0
 .vfp11_veneer  0x0000000008003bb4        0x0 linker stubs

.v4_bx          0x0000000008003bb4        0x0
 .v4_bx         0x0000000008003bb4        0x0 linker stubs

.iplt           0x0000000008003bb4        0x0
 .iplt          0x0000000008003bb4        0x0 EEPROM.o

.rel.dyn        0x0000000008003bb4        0x0
 .rel.iplt      0x0000000008003bb4        0x0 EEPROM.o

.data           0x0000000020000000       0x10 load address 0x0000000008003bb3
                0x0000000020000000                _S_DATA = .
 *(.data)
 .data          0x0000000020000000        0x0 Buzzer.o
 .data          0x0000000020000000        0x0 EEPROM.o
 .data          0x0000000020000000        0xc Key_pad_Driver.o
 .data          0x000000002000000c        0x4 LCD_Driver.o
 .data          0x0000000020000010        0x0 main.o
 .data          0x0000000020000010        0x0 Seven_Segment.o
 .data          0x0000000020000010        0x0 startup.o
 .data          0x0000000020000010        0x0 Stm32_f10xx_Systick.o
 .data          0x0000000020000010        0x0 Stm32f10x_SPI.o
 .data          0x0000000020000010        0x0 Stm32f10x_UART.o
 .data          0x0000000020000010        0x0 Stm32f10xx_EXTI.o
 .data          0x0000000020000010        0x0 Stm32f10xx_GPIO.o
 .data          0x0000000020000010        0x0 Stm32f10xx_I2C.o
 .data          0x0000000020000010        0x0 Stm32f10xx_RCC.o
 .data          0x0000000020000010        0x0 Stm32f10xx_Timers.o
 *(.data.*)
                0x0000000020000010                _E_DATA = .

.igot.plt       0x0000000020000010        0x0 load address 0x0000000008003bc3
 .igot.plt      0x0000000020000010        0x0 EEPROM.o

.bss            0x0000000020000010      0xa6c load address 0x0000000008003bc3
                0x0000000020000010                _S_bss = .
 *(.bss)
 .bss           0x0000000020000010        0x0 Buzzer.o
 .bss           0x0000000020000010        0x0 EEPROM.o
 .bss           0x0000000020000010       0x24 Key_pad_Driver.o
                0x0000000020000030                GPIOx
 .bss           0x0000000020000034        0xd LCD_Driver.o
 *fill*         0x0000000020000041        0x3 
 .bss           0x0000000020000044      0x1cc main.o
                0x0000000020000044                Lcd_config
                0x0000000020000064                key_pad_config
                0x0000000020000074                seven_config
                0x0000000020000080                uart1_config
                0x00000000200000b8                spi1_config
                0x00000000200000e4                spi2_config
                0x0000000020000110                spi3_config
                0x000000002000013c                i2c1_config
                0x000000002000019c                i2c2_config
                0x00000000200001fc                Rx_Buff
 .bss           0x0000000020000210       0x28 Seven_Segment.o
                0x0000000020000210                numbers
 .bss           0x0000000020000238        0x0 startup.o
 .bss           0x0000000020000238       0x10 Stm32_f10xx_Systick.o
                0x0000000020000238                Systick_API
 .bss           0x0000000020000248        0x2 Stm32f10x_SPI.o
 .bss           0x000000002000024a        0x0 Stm32f10x_UART.o
 .bss           0x000000002000024a        0x0 Stm32f10xx_EXTI.o
 .bss           0x000000002000024a        0x0 Stm32f10xx_GPIO.o
 .bss           0x000000002000024a        0x0 Stm32f10xx_I2C.o
 *fill*         0x000000002000024a        0x2 
 .bss           0x000000002000024c        0x4 Stm32f10xx_RCC.o
 .bss           0x0000000020000250        0x0 Stm32f10xx_Timers.o
 *(.bss.*)
                0x0000000020000250                . = ALIGN (0x4)
                0x0000000020000250                _E_bss = .
                0x0000000020000250                . = ALIGN (0x4)
                0x0000000020000638                . = (. + 0x3e8)
 *fill*         0x0000000020000250      0x3e8 
                0x0000000020000638                _heap_End = .
                0x0000000020000638                . = ALIGN (0x4)
                0x0000000020000a20                . = (. + 0x3e8)
 *fill*         0x0000000020000638      0x3e8 
                0x0000000020000a20                _stack_top = .
 COMMON         0x0000000020000a20       0x40 Stm32f10xx_EXTI.o
                0x0000000020000a20                GP_EXTI_CallBack
 COMMON         0x0000000020000a60       0x1c Stm32f10xx_Timers.o
                0x0000000020000a60                tim1_config
LOAD Buzzer.o
LOAD EEPROM.o
LOAD Key_pad_Driver.o
LOAD LCD_Driver.o
LOAD main.o
LOAD Seven_Segment.o
LOAD startup.o
LOAD Stm32_f10xx_Systick.o
LOAD Stm32f10x_SPI.o
LOAD Stm32f10x_UART.o
LOAD Stm32f10xx_EXTI.o
LOAD Stm32f10xx_GPIO.o
LOAD Stm32f10xx_I2C.o
LOAD Stm32f10xx_RCC.o
LOAD Stm32f10xx_Timers.o
OUTPUT(learn_embedded.axf elf32-littlearm)
LOAD linker stubs

.debug_line     0x0000000000000000     0x412b
 .debug_line    0x0000000000000000        0x0 Buzzer.o
 .debug_line    0x0000000000000000      0x26c EEPROM.o
 .debug_line    0x000000000000026c      0x370 Key_pad_Driver.o
 .debug_line    0x00000000000005dc      0x46b LCD_Driver.o
 .debug_line    0x0000000000000a47      0x3c0 main.o
 .debug_line    0x0000000000000e07      0x263 Seven_Segment.o
 .debug_line    0x000000000000106a      0x240 startup.o
 .debug_line    0x00000000000012aa      0x287 Stm32_f10xx_Systick.o
 .debug_line    0x0000000000001531      0x8c1 Stm32f10x_SPI.o
 .debug_line    0x0000000000001df2      0x87c Stm32f10x_UART.o
 .debug_line    0x000000000000266e      0x48c Stm32f10xx_EXTI.o
 .debug_line    0x0000000000002afa      0x433 Stm32f10xx_GPIO.o
 .debug_line    0x0000000000002f2d      0xceb Stm32f10xx_I2C.o
 .debug_line    0x0000000000003c18      0x2cc Stm32f10xx_RCC.o
 .debug_line    0x0000000000003ee4      0x247 Stm32f10xx_Timers.o

.debug_str      0x0000000000000000     0x20af
 .debug_str     0x0000000000000000       0xbd Buzzer.o
 .debug_str     0x00000000000000bd      0x33d EEPROM.o
                                        0x455 (size before relaxing)
 .debug_str     0x00000000000003fa      0x24f Key_pad_Driver.o
                                        0x3d5 (size before relaxing)
 .debug_str     0x0000000000000649      0x224 LCD_Driver.o
                                        0x4a5 (size before relaxing)
 .debug_str     0x000000000000086d      0x862 main.o
                                        0xdcb (size before relaxing)
 .debug_str     0x00000000000010cf       0x50 Seven_Segment.o
                                        0x281 (size before relaxing)
 .debug_str     0x000000000000111f       0x7f startup.o
                                        0x1cb (size before relaxing)
 .debug_str     0x000000000000119e      0x38f Stm32_f10xx_Systick.o
                                        0x573 (size before relaxing)
 .debug_str     0x000000000000152d      0x13b Stm32f10x_SPI.o
                                        0xd1b (size before relaxing)
 .debug_str     0x0000000000001668      0x1b6 Stm32f10x_UART.o
                                        0xf56 (size before relaxing)
 .debug_str     0x000000000000181e      0x28b Stm32f10xx_EXTI.o
                                        0x818 (size before relaxing)
 .debug_str     0x0000000000001aa9       0xff Stm32f10xx_GPIO.o
                                        0x3b2 (size before relaxing)
 .debug_str     0x0000000000001ba8      0x44a Stm32f10xx_I2C.o
                                       0x1107 (size before relaxing)
 .debug_str     0x0000000000001ff2       0x99 Stm32f10xx_RCC.o
                                        0x2a8 (size before relaxing)
 .debug_str     0x000000000000208b       0x24 Stm32f10xx_Timers.o
                                        0x32b (size before relaxing)

.comment        0x0000000000000000       0x53
 .comment       0x0000000000000000       0x53 Buzzer.o
                                         0x54 (size before relaxing)
 .comment       0x0000000000000053       0x54 EEPROM.o
 .comment       0x0000000000000053       0x54 Key_pad_Driver.o
 .comment       0x0000000000000053       0x54 LCD_Driver.o
 .comment       0x0000000000000053       0x54 main.o
 .comment       0x0000000000000053       0x54 Seven_Segment.o
 .comment       0x0000000000000053       0x54 startup.o
 .comment       0x0000000000000053       0x54 Stm32_f10xx_Systick.o
 .comment       0x0000000000000053       0x54 Stm32f10x_SPI.o
 .comment       0x0000000000000053       0x54 Stm32f10x_UART.o
 .comment       0x0000000000000053       0x54 Stm32f10xx_EXTI.o
 .comment       0x0000000000000053       0x54 Stm32f10xx_GPIO.o
 .comment       0x0000000000000053       0x54 Stm32f10xx_I2C.o
 .comment       0x0000000000000053       0x54 Stm32f10xx_RCC.o
 .comment       0x0000000000000053       0x54 Stm32f10xx_Timers.o

.ARM.attributes
                0x0000000000000000       0x33
 .ARM.attributes
                0x0000000000000000       0x33 Buzzer.o
 .ARM.attributes
                0x0000000000000033       0x2d EEPROM.o
 .ARM.attributes
                0x0000000000000060       0x2d Key_pad_Driver.o
 .ARM.attributes
                0x000000000000008d       0x2d LCD_Driver.o
 .ARM.attributes
                0x00000000000000ba       0x2d main.o
 .ARM.attributes
                0x00000000000000e7       0x2d Seven_Segment.o
 .ARM.attributes
                0x0000000000000114       0x2d startup.o
 .ARM.attributes
                0x0000000000000141       0x2d Stm32_f10xx_Systick.o
 .ARM.attributes
                0x000000000000016e       0x2d Stm32f10x_SPI.o
 .ARM.attributes
                0x000000000000019b       0x2d Stm32f10x_UART.o
 .ARM.attributes
                0x00000000000001c8       0x2d Stm32f10xx_EXTI.o
 .ARM.attributes
                0x00000000000001f5       0x2d Stm32f10xx_GPIO.o
 .ARM.attributes
                0x0000000000000222       0x2d Stm32f10xx_I2C.o
 .ARM.attributes
                0x000000000000024f       0x2d Stm32f10xx_RCC.o
 .ARM.attributes
                0x000000000000027c       0x2d Stm32f10xx_Timers.o

.debug_info     0x0000000000000000     0x8de6
 .debug_info    0x0000000000000000      0x4db EEPROM.o
 .debug_info    0x00000000000004db      0x560 Key_pad_Driver.o
 .debug_info    0x0000000000000a3b      0x7b7 LCD_Driver.o
 .debug_info    0x00000000000011f2     0x1687 main.o
 .debug_info    0x0000000000002879      0x2d2 Seven_Segment.o
 .debug_info    0x0000000000002b4b      0x1a1 startup.o
 .debug_info    0x0000000000002cec      0x439 Stm32_f10xx_Systick.o
 .debug_info    0x0000000000003125     0x151c Stm32f10x_SPI.o
 .debug_info    0x0000000000004641     0x17fd Stm32f10x_UART.o
 .debug_info    0x0000000000005e3e      0x89c Stm32f10xx_EXTI.o
 .debug_info    0x00000000000066da      0x60c Stm32f10xx_GPIO.o
 .debug_info    0x0000000000006ce6     0x1a92 Stm32f10xx_I2C.o
 .debug_info    0x0000000000008778      0x303 Stm32f10xx_RCC.o
 .debug_info    0x0000000000008a7b      0x36b Stm32f10xx_Timers.o

.debug_abbrev   0x0000000000000000     0x199d
 .debug_abbrev  0x0000000000000000      0x17c EEPROM.o
 .debug_abbrev  0x000000000000017c      0x169 Key_pad_Driver.o
 .debug_abbrev  0x00000000000002e5      0x1f6 LCD_Driver.o
 .debug_abbrev  0x00000000000004db      0x219 main.o
 .debug_abbrev  0x00000000000006f4      0x11a Seven_Segment.o
 .debug_abbrev  0x000000000000080e       0xe4 startup.o
 .debug_abbrev  0x00000000000008f2      0x143 Stm32_f10xx_Systick.o
 .debug_abbrev  0x0000000000000a35      0x34c Stm32f10x_SPI.o
 .debug_abbrev  0x0000000000000d81      0x38d Stm32f10x_UART.o
 .debug_abbrev  0x000000000000110e      0x1cc Stm32f10xx_EXTI.o
 .debug_abbrev  0x00000000000012da      0x175 Stm32f10xx_GPIO.o
 .debug_abbrev  0x000000000000144f      0x378 Stm32f10xx_I2C.o
 .debug_abbrev  0x00000000000017c7       0xfe Stm32f10xx_RCC.o
 .debug_abbrev  0x00000000000018c5       0xd8 Stm32f10xx_Timers.o

.debug_loc      0x0000000000000000     0x2aa2
 .debug_loc     0x0000000000000000       0xce EEPROM.o
 .debug_loc     0x00000000000000ce      0x1ec Key_pad_Driver.o
 .debug_loc     0x00000000000002ba      0x4c8 LCD_Driver.o
 .debug_loc     0x0000000000000782       0x64 main.o
 .debug_loc     0x00000000000007e6       0xa0 Seven_Segment.o
 .debug_loc     0x0000000000000886       0x7c startup.o
 .debug_loc     0x0000000000000902       0x88 Stm32_f10xx_Systick.o
 .debug_loc     0x000000000000098a      0x5d0 Stm32f10x_SPI.o
 .debug_loc     0x0000000000000f5a      0x79c Stm32f10x_UART.o
 .debug_loc     0x00000000000016f6      0x41c Stm32f10xx_EXTI.o
 .debug_loc     0x0000000000001b12      0x3f4 Stm32f10xx_GPIO.o
 .debug_loc     0x0000000000001f06      0xa04 Stm32f10xx_I2C.o
 .debug_loc     0x000000000000290a      0x13c Stm32f10xx_RCC.o
 .debug_loc     0x0000000000002a46       0x5c Stm32f10xx_Timers.o

.debug_aranges  0x0000000000000000      0x1c0
 .debug_aranges
                0x0000000000000000       0x20 EEPROM.o
 .debug_aranges
                0x0000000000000020       0x20 Key_pad_Driver.o
 .debug_aranges
                0x0000000000000040       0x20 LCD_Driver.o
 .debug_aranges
                0x0000000000000060       0x20 main.o
 .debug_aranges
                0x0000000000000080       0x20 Seven_Segment.o
 .debug_aranges
                0x00000000000000a0       0x20 startup.o
 .debug_aranges
                0x00000000000000c0       0x20 Stm32_f10xx_Systick.o
 .debug_aranges
                0x00000000000000e0       0x20 Stm32f10x_SPI.o
 .debug_aranges
                0x0000000000000100       0x20 Stm32f10x_UART.o
 .debug_aranges
                0x0000000000000120       0x20 Stm32f10xx_EXTI.o
 .debug_aranges
                0x0000000000000140       0x20 Stm32f10xx_GPIO.o
 .debug_aranges
                0x0000000000000160       0x20 Stm32f10xx_I2C.o
 .debug_aranges
                0x0000000000000180       0x20 Stm32f10xx_RCC.o
 .debug_aranges
                0x00000000000001a0       0x20 Stm32f10xx_Timers.o

.debug_frame    0x0000000000000000     0x1478
 .debug_frame   0x0000000000000000       0x78 EEPROM.o
 .debug_frame   0x0000000000000078       0xec Key_pad_Driver.o
 .debug_frame   0x0000000000000164      0x234 LCD_Driver.o
 .debug_frame   0x0000000000000398       0x4c main.o
 .debug_frame   0x00000000000003e4       0x58 Seven_Segment.o
 .debug_frame   0x000000000000043c       0x50 startup.o
 .debug_frame   0x000000000000048c       0x54 Stm32_f10xx_Systick.o
 .debug_frame   0x00000000000004e0      0x2b8 Stm32f10x_SPI.o
 .debug_frame   0x0000000000000798      0x378 Stm32f10x_UART.o
 .debug_frame   0x0000000000000b10      0x220 Stm32f10xx_EXTI.o
 .debug_frame   0x0000000000000d30      0x1c8 Stm32f10xx_GPIO.o
 .debug_frame   0x0000000000000ef8      0x494 Stm32f10xx_I2C.o
 .debug_frame   0x000000000000138c       0xb4 Stm32f10xx_RCC.o
 .debug_frame   0x0000000000001440       0x38 Stm32f10xx_Timers.o
